target datalayout = "e-m:e-p270:32:32-p271:32:32-p272:64:64-i64:64-i128:128-f80:128-n8:16:32:64-S128"
target triple = "x86_64-pc-linux-gnu"

%"struct.std::nothrow_t" = type { i8 }

@_ZN6google10g_new_hookE = hidden global ptr null, align 8
@_ZSt7nothrow = external global %"struct.std::nothrow_t", align 1
@_ZTISt9bad_alloc = external constant ptr
@_ZTVSt9bad_alloc = external unnamed_addr constant { [5 x ptr] }, align 8
@_ZTVSt9exception = external unnamed_addr constant { [5 x ptr] }, align 8

; Function Attrs: mustprogress nounwind uwtable
define linkonce_odr hidden void @_ZNSt9exceptionC2Ev(ptr noundef nonnull align 8 dereferenceable(8) %0) unnamed_addr #2 comdat align 2 {
  %2 = alloca ptr, align 8
  store ptr %0, ptr %2, align 8
  %3 = load ptr, ptr %2, align 8
  store ptr getelementptr inbounds ({ [5 x ptr] }, ptr @_ZTVSt9exception, i32 0, i32 0, i32 2), ptr %3, align 8
  ret void
}

; Function Attrs: mustprogress nounwind uwtable
define linkonce_odr hidden void @_ZNSt9bad_allocC2Ev(ptr noundef nonnull align 8 dereferenceable(8) %0) unnamed_addr #2 comdat align 2 {
  %2 = alloca ptr, align 8
  store ptr %0, ptr %2, align 8
  %3 = load ptr, ptr %2, align 8
  call void @_ZNSt9exceptionC2Ev(ptr noundef nonnull align 8 dereferenceable(8) %3) #5
  store ptr getelementptr inbounds ({ [5 x ptr] }, ptr @_ZTVSt9bad_alloc, i32 0, i32 0, i32 2), ptr %3, align 8
  ret void
}

; Function Attrs: mustprogress nobuiltin nounwind allocsize(0) uwtable
define dso_local noalias noundef ptr @_ZnwmRKSt9nothrow_t(i64 noundef %0, ptr noundef nonnull align 1 dereferenceable(1) %1) #6 personality ptr @__gxx_personality_v0 {
  %3 = alloca i64, align 8
  %4 = alloca ptr, align 8
  store i64 %0, ptr %3, align 8
  store ptr %1, ptr %4, align 8
  %5 = load ptr, ptr @_ZN6google10g_new_hookE, align 8
  %6 = icmp ne ptr %5, null
  br i1 %6, label %7, label %10

7:                                                ; preds = %2
  %8 = load ptr, ptr @_ZN6google10g_new_hookE, align 8
  invoke void %8()
          to label %9 unwind label %13

9:                                                ; preds = %7
  br label %10

10:                                               ; preds = %9, %2
  %11 = load i64, ptr %3, align 8
  %12 = call noalias ptr @malloc(i64 noundef %11) #20
  ret ptr %12

13:                                               ; preds = %7
  %14 = landingpad { ptr, i32 }
          catch ptr null
  %15 = extractvalue { ptr, i32 } %14, 0
  call void @__clang_call_terminate(ptr %15) #19
  unreachable
}

; Function Attrs: mustprogress nobuiltin allocsize(0) uwtable
define dso_local noundef nonnull ptr @_Znwm(i64 noundef %0) #9 {
  %2 = alloca i64, align 8
  %3 = alloca ptr, align 8
  store i64 %0, ptr %2, align 8
  %4 = load i64, ptr %2, align 8
  %5 = call noalias noundef ptr @_ZnwmRKSt9nothrow_t(i64 noundef %4, ptr noundef nonnull align 1 dereferenceable(1) @_ZSt7nothrow) #20
  store ptr %5, ptr %3, align 8
  %6 = load ptr, ptr %3, align 8
  %7 = icmp eq ptr %6, null
  br i1 %7, label %8, label %10

8:                                                ; preds = %1
  %9 = call ptr @__cxa_allocate_exception(i64 8) #5
  call void @_ZNSt9bad_allocC2Ev(ptr noundef nonnull align 8 dereferenceable(8) %9) #5
  call void @__cxa_throw(ptr %9, ptr @_ZTISt9bad_alloc, ptr @_ZNSt9bad_allocD1Ev) #21
  unreachable

10:                                               ; preds = %1
  %11 = load ptr, ptr %3, align 8
  ret ptr %11
}